; ModuleID = '9/820.c'
source_filename = "9/820.c"
target datalayout = "e-m:e-p270:32:32-p271:32:32-p272:64:64-i64:64-f80:128-n8:16:32:64-S128"
target triple = "x86_64-pc-linux-gnu"

%struct.b = type { [10 x i8], i32 }

@.str = private unnamed_addr constant [3 x i8] c"%d\00", align 1
@.str.1 = private unnamed_addr constant [6 x i8] c"%s %d\00", align 1
@.str.2 = private unnamed_addr constant [4 x i8] c"%s\0A\00", align 1

; Function Attrs: noinline nounwind uwtable
define dso_local void @main() #0 {
  %1 = alloca i32, align 4
  %2 = alloca i32, align 4
  %3 = alloca i32, align 4
  %4 = alloca i32, align 4
  %5 = alloca [100 x %struct.b], align 16
  %6 = alloca %struct.b, align 4
  %7 = alloca [100 x %struct.b], align 16
  %8 = call i32 (i8*, ...) @__isoc99_scanf(i8* getelementptr inbounds ([3 x i8], [3 x i8]* @.str, i64 0, i64 0), i32* %1)
  store i32 0, i32* %2, align 4
  br label %9

9:                                                ; preds = %23, %0
  %10 = load i32, i32* %2, align 4
  %11 = load i32, i32* %1, align 4
  %12 = icmp slt i32 %10, %11
  br i1 %12, label %13, label %26

13:                                               ; preds = %9
  %14 = load i32, i32* %2, align 4
  %15 = sext i32 %14 to i64
  %16 = getelementptr inbounds [100 x %struct.b], [100 x %struct.b]* %5, i64 0, i64 %15
  %17 = getelementptr inbounds %struct.b, %struct.b* %16, i32 0, i32 0
  %18 = load i32, i32* %2, align 4
  %19 = sext i32 %18 to i64
  %20 = getelementptr inbounds [100 x %struct.b], [100 x %struct.b]* %5, i64 0, i64 %19
  %21 = getelementptr inbounds %struct.b, %struct.b* %20, i32 0, i32 1
  %22 = call i32 (i8*, ...) @__isoc99_scanf(i8* getelementptr inbounds ([6 x i8], [6 x i8]* @.str.1, i64 0, i64 0), [10 x i8]* %17, i32* %21)
  br label %23

23:                                               ; preds = %13
  %24 = load i32, i32* %2, align 4
  %25 = add nsw i32 %24, 1
  store i32 %25, i32* %2, align 4
  br label %9

26:                                               ; preds = %9
  store i32 0, i32* %2, align 4
  store i32 0, i32* %3, align 4
  br label %27

27:                                               ; preds = %50, %26
  %28 = load i32, i32* %2, align 4
  %29 = load i32, i32* %1, align 4
  %30 = icmp slt i32 %28, %29
  br i1 %30, label %31, label %53

31:                                               ; preds = %27
  %32 = load i32, i32* %2, align 4
  %33 = sext i32 %32 to i64
  %34 = getelementptr inbounds [100 x %struct.b], [100 x %struct.b]* %5, i64 0, i64 %33
  %35 = getelementptr inbounds %struct.b, %struct.b* %34, i32 0, i32 1
  %36 = load i32, i32* %35, align 4
  %37 = icmp sge i32 %36, 60
  br i1 %37, label %38, label %49

38:                                               ; preds = %31
  %39 = load i32, i32* %3, align 4
  %40 = sext i32 %39 to i64
  %41 = getelementptr inbounds [100 x %struct.b], [100 x %struct.b]* %7, i64 0, i64 %40
  %42 = load i32, i32* %2, align 4
  %43 = sext i32 %42 to i64
  %44 = getelementptr inbounds [100 x %struct.b], [100 x %struct.b]* %5, i64 0, i64 %43
  %45 = bitcast %struct.b* %41 to i8*
  %46 = bitcast %struct.b* %44 to i8*
  call void @llvm.memcpy.p0i8.p0i8.i64(i8* align 16 %45, i8* align 16 %46, i64 16, i1 false)
  %47 = load i32, i32* %3, align 4
  %48 = add nsw i32 %47, 1
  store i32 %48, i32* %3, align 4
  br label %49

49:                                               ; preds = %38, %31
  br label %50

50:                                               ; preds = %49
  %51 = load i32, i32* %2, align 4
  %52 = add nsw i32 %51, 1
  store i32 %52, i32* %2, align 4
  br label %27

53:                                               ; preds = %27
  %54 = load i32, i32* %3, align 4
  %55 = sub nsw i32 %54, 1
  store i32 %55, i32* %2, align 4
  br label %56

56:                                               ; preds = %108, %53
  %57 = load i32, i32* %2, align 4
  %58 = icmp sge i32 %57, 1
  br i1 %58, label %59, label %111

59:                                               ; preds = %56
  %60 = load i32, i32* %3, align 4
  %61 = sub nsw i32 %60, 1
  store i32 %61, i32* %4, align 4
  br label %62

62:                                               ; preds = %104, %59
  %63 = load i32, i32* %4, align 4
  %64 = load i32, i32* %3, align 4
  %65 = load i32, i32* %2, align 4
  %66 = sub nsw i32 %64, %65
  %67 = sub nsw i32 %66, 1
  %68 = icmp sgt i32 %63, %67
  br i1 %68, label %69, label %107

69:                                               ; preds = %62
  %70 = load i32, i32* %4, align 4
  %71 = sext i32 %70 to i64
  %72 = getelementptr inbounds [100 x %struct.b], [100 x %struct.b]* %7, i64 0, i64 %71
  %73 = getelementptr inbounds %struct.b, %struct.b* %72, i32 0, i32 1
  %74 = load i32, i32* %73, align 4
  %75 = load i32, i32* %4, align 4
  %76 = sub nsw i32 %75, 1
  %77 = sext i32 %76 to i64
  %78 = getelementptr inbounds [100 x %struct.b], [100 x %struct.b]* %7, i64 0, i64 %77
  %79 = getelementptr inbounds %struct.b, %struct.b* %78, i32 0, i32 1
  %80 = load i32, i32* %79, align 4
  %81 = icmp sgt i32 %74, %80
  br i1 %81, label %82, label %103

82:                                               ; preds = %69
  %83 = load i32, i32* %4, align 4
  %84 = sext i32 %83 to i64
  %85 = getelementptr inbounds [100 x %struct.b], [100 x %struct.b]* %7, i64 0, i64 %84
  %86 = bitcast %struct.b* %6 to i8*
  %87 = bitcast %struct.b* %85 to i8*
  call void @llvm.memcpy.p0i8.p0i8.i64(i8* align 4 %86, i8* align 16 %87, i64 16, i1 false)
  %88 = load i32, i32* %4, align 4
  %89 = sext i32 %88 to i64
  %90 = getelementptr inbounds [100 x %struct.b], [100 x %struct.b]* %7, i64 0, i64 %89
  %91 = load i32, i32* %4, align 4
  %92 = sub nsw i32 %91, 1
  %93 = sext i32 %92 to i64
  %94 = getelementptr inbounds [100 x %struct.b], [100 x %struct.b]* %7, i64 0, i64 %93
  %95 = bitcast %struct.b* %90 to i8*
  %96 = bitcast %struct.b* %94 to i8*
  call void @llvm.memcpy.p0i8.p0i8.i64(i8* align 16 %95, i8* align 16 %96, i64 16, i1 false)
  %97 = load i32, i32* %4, align 4
  %98 = sub nsw i32 %97, 1
  %99 = sext i32 %98 to i64
  %100 = getelementptr inbounds [100 x %struct.b], [100 x %struct.b]* %7, i64 0, i64 %99
  %101 = bitcast %struct.b* %100 to i8*
  %102 = bitcast %struct.b* %6 to i8*
  call void @llvm.memcpy.p0i8.p0i8.i64(i8* align 16 %101, i8* align 4 %102, i64 16, i1 false)
  br label %103

103:                                              ; preds = %82, %69
  br label %104

104:                                              ; preds = %103
  %105 = load i32, i32* %4, align 4
  %106 = add nsw i32 %105, -1
  store i32 %106, i32* %4, align 4
  br label %62

107:                                              ; preds = %62
  br label %108

108:                                              ; preds = %107
  %109 = load i32, i32* %2, align 4
  %110 = add nsw i32 %109, -1
  store i32 %110, i32* %2, align 4
  br label %56

111:                                              ; preds = %56
  store i32 0, i32* %2, align 4
  br label %112

112:                                              ; preds = %123, %111
  %113 = load i32, i32* %2, align 4
  %114 = load i32, i32* %3, align 4
  %115 = icmp slt i32 %113, %114
  br i1 %115, label %116, label %126

116:                                              ; preds = %112
  %117 = load i32, i32* %2, align 4
  %118 = sext i32 %117 to i64
  %119 = getelementptr inbounds [100 x %struct.b], [100 x %struct.b]* %7, i64 0, i64 %118
  %120 = getelementptr inbounds %struct.b, %struct.b* %119, i32 0, i32 0
  %121 = getelementptr inbounds [10 x i8], [10 x i8]* %120, i64 0, i64 0
  %122 = call i32 (i8*, ...) @printf(i8* getelementptr inbounds ([4 x i8], [4 x i8]* @.str.2, i64 0, i64 0), i8* %121)
  br label %123

123:                                              ; preds = %116
  %124 = load i32, i32* %2, align 4
  %125 = add nsw i32 %124, 1
  store i32 %125, i32* %2, align 4
  br label %112

126:                                              ; preds = %112
  store i32 0, i32* %2, align 4
  br label %127

127:                                              ; preds = %146, %126
  %128 = load i32, i32* %2, align 4
  %129 = load i32, i32* %1, align 4
  %130 = icmp slt i32 %128, %129
  br i1 %130, label %131, label %149

131:                                              ; preds = %127
  %132 = load i32, i32* %2, align 4
  %133 = sext i32 %132 to i64
  %134 = getelementptr inbounds [100 x %struct.b], [100 x %struct.b]* %5, i64 0, i64 %133
  %135 = getelementptr inbounds %struct.b, %struct.b* %134, i32 0, i32 1
  %136 = load i32, i32* %135, align 4
  %137 = icmp slt i32 %136, 60
  br i1 %137, label %138, label %145

138:                                              ; preds = %131
  %139 = load i32, i32* %2, align 4
  %140 = sext i32 %139 to i64
  %141 = getelementptr inbounds [100 x %struct.b], [100 x %struct.b]* %5, i64 0, i64 %140
  %142 = getelementptr inbounds %struct.b, %struct.b* %141, i32 0, i32 0
  %143 = getelementptr inbounds [10 x i8], [10 x i8]* %142, i64 0, i64 0
  %144 = call i32 (i8*, ...) @printf(i8* getelementptr inbounds ([4 x i8], [4 x i8]* @.str.2, i64 0, i64 0), i8* %143)
  br label %145

145:                                              ; preds = %138, %131
  br label %146

146:                                              ; preds = %145
  %147 = load i32, i32* %2, align 4
  %148 = add nsw i32 %147, 1
  store i32 %148, i32* %2, align 4
  br label %127

149:                                              ; preds = %127
  ret void
}

declare dso_local i32 @__isoc99_scanf(i8*, ...) #1

; Function Attrs: argmemonly nounwind willreturn
declare void @llvm.memcpy.p0i8.p0i8.i64(i8* noalias nocapture writeonly, i8* noalias nocapture readonly, i64, i1 immarg) #2

declare dso_local i32 @printf(i8*, ...) #1


!llvm.module.flags = !{!0}
!llvm.ident = !{!1}

!0 = !{i32 1, !"wchar_size", i32 4}
!1 = !{!"clang version 10.0.0-4ubuntu1 "}
